target datalayout = "e-m:e-p270:32:32-p271:32:32-p272:64:64-i64:64-i128:128-f80:128-n8:16:32:64-S128"
target triple = "x86_64-pc-linux-gnu"

%struct.DdManager = type { %struct.DdNode, ptr, ptr, ptr, ptr, ptr, ptr, ptr, i32, i32, double, double, double, i32, i32, i32, i32, i32, i32, ptr, ptr, %struct.DdSubtable, i32, i32, i32, i32, i32, i32, i32, double, i32, i32, i32, ptr, i64, double, i32, ptr, ptr, ptr, ptr, ptr, ptr, ptr, i32, ptr, ptr, ptr, ptr, ptr, ptr, i32, i32, i32, double, i32, i32, i32, i32, double, double, i32, i32, i32, i32, i32, i32, i32, i32, i32, ptr, ptr, i32, i32, i32, i32, i32, i32, ptr, ptr, ptr, ptr, ptr, ptr, ptr, ptr, i32, i64, i64, i64, i32, i64, i64, double, double, double, double, double, double, i32, ptr, ptr, i64 }
%struct.DdNode = type { i32, i32, ptr, %union.anon, i64 }
%union.anon = type { %struct.DdChildren }
%struct.DdChildren = type { ptr, ptr }
%struct.DdSubtable = type { ptr, i32, i32, i32, i32, i32, i32, i32, i32, i32, i32, i32 }
%struct.DdCache = type { ptr, ptr, i64, ptr, i32 }

; Function Attrs: nounwind uwtable
define i32 @cuddComputeFloorLog2(i32 noundef %0) #0 {
  %2 = alloca i32, align 4
  %3 = alloca i32, align 4
  store i32 %0, ptr %2, align 4, !tbaa !8
  call void @llvm.lifetime.start.p0(i64 4, ptr %3) #6
  store i32 0, ptr %3, align 4, !tbaa !8
  br label %4

4:                                                ; preds = %7, %1
  %5 = load i32, ptr %2, align 4, !tbaa !8
  %6 = icmp ugt i32 %5, 1
  br i1 %6, label %7, label %12

7:                                                ; preds = %4
  %8 = load i32, ptr %3, align 4, !tbaa !8
  %9 = add nsw i32 %8, 1
  store i32 %9, ptr %3, align 4, !tbaa !8
  %10 = load i32, ptr %2, align 4, !tbaa !8
  %11 = lshr i32 %10, 1
  store i32 %11, ptr %2, align 4, !tbaa !8
  br label %4, !llvm.loop !51

12:                                               ; preds = %4
  %13 = load i32, ptr %3, align 4, !tbaa !8
  call void @llvm.lifetime.end.p0(i64 4, ptr %3) #6
  ret i32 %13
}

; Function Attrs: nounwind uwtable
define i32 @cuddInitCache(ptr noundef %0, i32 noundef %1, i32 noundef %2) #0 {
  %4 = alloca i32, align 4
  %5 = alloca ptr, align 8
  %6 = alloca i32, align 4
  %7 = alloca i32, align 4
  %8 = alloca i32, align 4
  %9 = alloca i32, align 4
  %10 = alloca ptr, align 8
  %11 = alloca i64, align 8
  %12 = alloca i32, align 4
  store ptr %0, ptr %5, align 8, !tbaa !3
  store i32 %1, ptr %6, align 4, !tbaa !8
  store i32 %2, ptr %7, align 4, !tbaa !8
  call void @llvm.lifetime.start.p0(i64 4, ptr %8) #6
  call void @llvm.lifetime.start.p0(i64 4, ptr %9) #6
  call void @llvm.lifetime.start.p0(i64 8, ptr %10) #6
  call void @llvm.lifetime.start.p0(i64 8, ptr %11) #6
  %13 = load ptr, ptr %5, align 8, !tbaa !3
  %14 = getelementptr inbounds nuw %struct.DdManager, ptr %13, i32 0, i32 22
  %15 = load i32, ptr %14, align 8, !tbaa !10
  %16 = udiv i32 %15, 2
  %17 = load i32, ptr %6, align 4, !tbaa !8
  %18 = icmp ugt i32 %16, %17
  br i1 %18, label %19, label %24

19:                                               ; preds = %3
  %20 = load ptr, ptr %5, align 8, !tbaa !3
  %21 = getelementptr inbounds nuw %struct.DdManager, ptr %20, i32 0, i32 22
  %22 = load i32, ptr %21, align 8, !tbaa !10
  %23 = udiv i32 %22, 2
  br label %26

24:                                               ; preds = %3
  %25 = load i32, ptr %6, align 4, !tbaa !8
  br label %26

26:                                               ; preds = %24, %19
  %27 = phi i32 [ %23, %19 ], [ %25, %24 ]
  %28 = call i32 @cuddComputeFloorLog2(i32 noundef %27)
  store i32 %28, ptr %9, align 4, !tbaa !8
  %29 = load i32, ptr %9, align 4, !tbaa !8
  %30 = shl i32 1, %29
  store i32 %30, ptr %6, align 4, !tbaa !8
  %31 = load i32, ptr %6, align 4, !tbaa !8
  %32 = add i32 %31, 2
  %33 = zext i32 %32 to i64
  %34 = mul i64 40, %33
  %35 = call noalias ptr @malloc(i64 noundef %34) #7
  %36 = load ptr, ptr %5, align 8, !tbaa !3
  %37 = getelementptr inbounds nuw %struct.DdManager, ptr %36, i32 0, i32 6
  store ptr %35, ptr %37, align 8, !tbaa !27
  %38 = load ptr, ptr %5, align 8, !tbaa !3
  %39 = getelementptr inbounds nuw %struct.DdManager, ptr %38, i32 0, i32 6
  %40 = load ptr, ptr %39, align 8, !tbaa !27
  %41 = icmp eq ptr %40, null
  br i1 %41, label %42, label %45

42:                                               ; preds = %26
  %43 = load ptr, ptr %5, align 8, !tbaa !3
  %44 = getelementptr inbounds nuw %struct.DdManager, ptr %43, i32 0, i32 86
  store i32 1, ptr %44, align 8, !tbaa !28
  store i32 0, ptr %4, align 4
  store i32 1, ptr %12, align 4
  br label %152

45:                                               ; preds = %26
  %46 = load ptr, ptr %5, align 8, !tbaa !3
  %47 = getelementptr inbounds nuw %struct.DdManager, ptr %46, i32 0, i32 6
  %48 = load ptr, ptr %47, align 8, !tbaa !27
  store ptr %48, ptr %10, align 8, !tbaa !29
  %49 = load ptr, ptr %10, align 8, !tbaa !29
  %50 = ptrtoint ptr %49 to i64
  %51 = and i64 %50, 31
  store i64 %51, ptr %11, align 8, !tbaa !30
  %52 = load i64, ptr %11, align 8, !tbaa !30
  %53 = sub i64 32, %52
  %54 = udiv i64 %53, 8
  %55 = load ptr, ptr %10, align 8, !tbaa !29
  %56 = getelementptr inbounds nuw ptr, ptr %55, i64 %54
  store ptr %56, ptr %10, align 8, !tbaa !29
  %57 = load ptr, ptr %10, align 8, !tbaa !29
  %58 = load ptr, ptr %5, align 8, !tbaa !3
  %59 = getelementptr inbounds nuw %struct.DdManager, ptr %58, i32 0, i32 7
  store ptr %57, ptr %59, align 8, !tbaa !31
  %60 = load i32, ptr %6, align 4, !tbaa !8
  %61 = add i32 %60, 1
  %62 = zext i32 %61 to i64
  %63 = mul i64 %62, 40
  %64 = load ptr, ptr %5, align 8, !tbaa !3
  %65 = getelementptr inbounds nuw %struct.DdManager, ptr %64, i32 0, i32 87
  %66 = load i64, ptr %65, align 8, !tbaa !32
  %67 = add i64 %66, %63
  store i64 %67, ptr %65, align 8, !tbaa !32
  %68 = load i32, ptr %6, align 4, !tbaa !8
  %69 = load ptr, ptr %5, align 8, !tbaa !3
  %70 = getelementptr inbounds nuw %struct.DdManager, ptr %69, i32 0, i32 8
  store i32 %68, ptr %70, align 8, !tbaa !33
  %71 = load i32, ptr %9, align 4, !tbaa !8
  %72 = zext i32 %71 to i64
  %73 = sub i64 32, %72
  %74 = trunc i64 %73 to i32
  %75 = load ptr, ptr %5, align 8, !tbaa !3
  %76 = getelementptr inbounds nuw %struct.DdManager, ptr %75, i32 0, i32 9
  store i32 %74, ptr %76, align 4, !tbaa !34
  %77 = load i32, ptr %7, align 4, !tbaa !8
  %78 = load ptr, ptr %5, align 8, !tbaa !3
  %79 = getelementptr inbounds nuw %struct.DdManager, ptr %78, i32 0, i32 14
  store i32 %77, ptr %79, align 4, !tbaa !35
  %80 = load ptr, ptr %5, align 8, !tbaa !3
  %81 = getelementptr inbounds nuw %struct.DdManager, ptr %80, i32 0, i32 22
  %82 = load i32, ptr %81, align 8, !tbaa !10
  %83 = mul i32 4, %82
  %84 = load i32, ptr %7, align 4, !tbaa !8
  %85 = icmp ult i32 %83, %84
  br i1 %85, label %86, label %91

86:                                               ; preds = %45
  %87 = load ptr, ptr %5, align 8, !tbaa !3
  %88 = getelementptr inbounds nuw %struct.DdManager, ptr %87, i32 0, i32 22
  %89 = load i32, ptr %88, align 8, !tbaa !10
  %90 = mul i32 4, %89
  br label %93

91:                                               ; preds = %45
  %92 = load i32, ptr %7, align 4, !tbaa !8
  br label %93

93:                                               ; preds = %91, %86
  %94 = phi i32 [ %90, %86 ], [ %92, %91 ]
  %95 = load i32, ptr %6, align 4, !tbaa !8
  %96 = mul nsw i32 2, %95
  %97 = sub nsw i32 %94, %96
  %98 = load ptr, ptr %5, align 8, !tbaa !3
  %99 = getelementptr inbounds nuw %struct.DdManager, ptr %98, i32 0, i32 13
  store i32 %97, ptr %99, align 8, !tbaa !36
  %100 = load ptr, ptr %5, align 8, !tbaa !3
  call void @Cudd_SetMinHit(ptr noundef %100, i32 noundef 30)
  %101 = load i32, ptr %6, align 4, !tbaa !8
  %102 = uitofp i32 %101 to double
  %103 = load ptr, ptr %5, align 8, !tbaa !3
  %104 = getelementptr inbounds nuw %struct.DdManager, ptr %103, i32 0, i32 12
  %105 = load double, ptr %104, align 8, !tbaa !37
  %106 = call double @llvm.fmuladd.f64(double %102, double %105, double 1.000000e+00)
  %107 = fptosi double %106 to i32
  %108 = sitofp i32 %107 to double
  %109 = load ptr, ptr %5, align 8, !tbaa !3
  %110 = getelementptr inbounds nuw %struct.DdManager, ptr %109, i32 0, i32 10
  store double %108, ptr %110, align 8, !tbaa !38
  %111 = load ptr, ptr %5, align 8, !tbaa !3
  %112 = getelementptr inbounds nuw %struct.DdManager, ptr %111, i32 0, i32 11
  store double 0.000000e+00, ptr %112, align 8, !tbaa !39
  %113 = load ptr, ptr %5, align 8, !tbaa !3
  %114 = getelementptr inbounds nuw %struct.DdManager, ptr %113, i32 0, i32 93
  store double 0.000000e+00, ptr %114, align 8, !tbaa !40
  %115 = load ptr, ptr %5, align 8, !tbaa !3
  %116 = getelementptr inbounds nuw %struct.DdManager, ptr %115, i32 0, i32 10
  %117 = load double, ptr %116, align 8, !tbaa !38
  %118 = fneg double %117
  %119 = load ptr, ptr %5, align 8, !tbaa !3
  %120 = getelementptr inbounds nuw %struct.DdManager, ptr %119, i32 0, i32 94
  store double %118, ptr %120, align 8, !tbaa !41
  %121 = load ptr, ptr %5, align 8, !tbaa !3
  %122 = getelementptr inbounds nuw %struct.DdManager, ptr %121, i32 0, i32 95
  store double 0.000000e+00, ptr %122, align 8, !tbaa !42
  %123 = load ptr, ptr %5, align 8, !tbaa !3
  %124 = getelementptr inbounds nuw %struct.DdManager, ptr %123, i32 0, i32 96
  store double 0.000000e+00, ptr %124, align 8, !tbaa !43
  %125 = load ptr, ptr %5, align 8, !tbaa !3
  %126 = getelementptr inbounds nuw %struct.DdManager, ptr %125, i32 0, i32 97
  store double 0.000000e+00, ptr %126, align 8, !tbaa !44
  %127 = load ptr, ptr %5, align 8, !tbaa !3
  %128 = getelementptr inbounds nuw %struct.DdManager, ptr %127, i32 0, i32 98
  store double 0.000000e+00, ptr %128, align 8, !tbaa !45
  store i32 0, ptr %8, align 4, !tbaa !8
  br label %129

129:                                              ; preds = %148, %93
  %130 = load i32, ptr %8, align 4, !tbaa !8
  %131 = load i32, ptr %6, align 4, !tbaa !8
  %132 = icmp ult i32 %130, %131
  br i1 %132, label %133, label %151

133:                                              ; preds = %129
  %134 = load ptr, ptr %5, align 8, !tbaa !3
  %135 = getelementptr inbounds nuw %struct.DdManager, ptr %134, i32 0, i32 7
  %136 = load ptr, ptr %135, align 8, !tbaa !31
  %137 = load i32, ptr %8, align 4, !tbaa !8
  %138 = sext i32 %137 to i64
  %139 = getelementptr inbounds %struct.DdCache, ptr %136, i64 %138
  %140 = getelementptr inbounds nuw %struct.DdCache, ptr %139, i32 0, i32 2
  store i64 0, ptr %140, align 8, !tbaa !46
  %141 = load ptr, ptr %5, align 8, !tbaa !3
  %142 = getelementptr inbounds nuw %struct.DdManager, ptr %141, i32 0, i32 7
  %143 = load ptr, ptr %142, align 8, !tbaa !31
  %144 = load i32, ptr %8, align 4, !tbaa !8
  %145 = sext i32 %144 to i64
  %146 = getelementptr inbounds %struct.DdCache, ptr %143, i64 %145
  %147 = getelementptr inbounds nuw %struct.DdCache, ptr %146, i32 0, i32 3
  store ptr null, ptr %147, align 8, !tbaa !48
  br label %148

148:                                              ; preds = %133
  %149 = load i32, ptr %8, align 4, !tbaa !8
  %150 = add nsw i32 %149, 1
  store i32 %150, ptr %8, align 4, !tbaa !8
  br label %129, !llvm.loop !49

151:                                              ; preds = %129
  store i32 1, ptr %4, align 4
  store i32 1, ptr %12, align 4
  br label %152

152:                                              ; preds = %151, %42
  call void @llvm.lifetime.end.p0(i64 8, ptr %11) #6
  call void @llvm.lifetime.end.p0(i64 8, ptr %10) #6
  call void @llvm.lifetime.end.p0(i64 4, ptr %9) #6
  call void @llvm.lifetime.end.p0(i64 4, ptr %8) #6
  %153 = load i32, ptr %4, align 4
  ret i32 %153
}