; Function Attrs: nounwind uwtable
define range(i32 0, 2) i32 @cuddInitCache(ptr noundef %0, i32 noundef %1, i32 noundef %2) local_unnamed_addr #0 {
  %4 = getelementptr inbounds nuw i8, ptr %0, i64 224
  %5 = load i32, ptr %4, align 8, !tbaa !3
  %6 = lshr i32 %5, 1
  %. = tail call i32 @llvm.umax.i32(i32 %6, i32 %1)
  %7 = icmp ugt i32 %., 1
  br i1 %7, label %.lr.ph.i, label %cuddComputeFloorLog2.exit

.lr.ph.i:                                         ; preds = %3, %.lr.ph.i
  %.06.i = phi i32 [ %8, %.lr.ph.i ], [ 0, %3 ]
  %.045.i = phi i32 [ %9, %.lr.ph.i ], [ %., %3 ]
  %8 = add nuw nsw i32 %.06.i, 1
  %9 = lshr i32 %.045.i, 1
  %10 = icmp ugt i32 %.045.i, 3
  br i1 %10, label %.lr.ph.i, label %cuddComputeFloorLog2.exit, !llvm.loop !24

cuddComputeFloorLog2.exit:                        ; preds = %.lr.ph.i, %3
  %.0.lcssa.i = phi i32 [ 0, %3 ], [ %8, %.lr.ph.i ]
  %11 = shl nuw i32 1, %.0.lcssa.i
  %12 = add nuw i32 %11, 2
  %13 = zext i32 %12 to i64
  %14 = mul nuw nsw i64 %13, 40
  %15 = tail call noalias ptr @malloc(i64 noundef %14) #13
  %16 = getelementptr inbounds nuw i8, ptr %0, i64 80
  store ptr %15, ptr %16, align 8, !tbaa !26
  %17 = icmp eq ptr %15, null
  br i1 %17, label %18, label %20

18:                                               ; preds = %cuddComputeFloorLog2.exit
  %19 = getelementptr inbounds nuw i8, ptr %0, i64 624
  store i32 1, ptr %19, align 8, !tbaa !27
  br label %.loopexit

20:                                               ; preds = %cuddComputeFloorLog2.exit
  %21 = ptrtoint ptr %15 to i64
  %22 = and i64 %21, 31
  %23 = sub nuw nsw i64 32, %22
  %24 = lshr i64 %23, 3
  %25 = getelementptr inbounds nuw ptr, ptr %15, i64 %24
  %26 = getelementptr inbounds nuw i8, ptr %0, i64 88
  store ptr %25, ptr %26, align 8, !tbaa !28
  %27 = add nuw i32 %11, 1
  %28 = zext i32 %27 to i64
  %29 = mul nuw nsw i64 %28, 40
  %30 = getelementptr inbounds nuw i8, ptr %0, i64 632
  %31 = load i64, ptr %30, align 8, !tbaa !29
  %32 = add i64 %31, %29
  store i64 %32, ptr %30, align 8, !tbaa !29
  %33 = getelementptr inbounds nuw i8, ptr %0, i64 96
  store i32 %11, ptr %33, align 8, !tbaa !30
  %34 = sub i32 32, %.0.lcssa.i
  %35 = getelementptr inbounds nuw i8, ptr %0, i64 100
  store i32 %34, ptr %35, align 4, !tbaa !31
  %36 = getelementptr inbounds nuw i8, ptr %0, i64 132
  store i32 %2, ptr %36, align 4, !tbaa !32
  %37 = shl i32 %5, 2
  %.54 = tail call i32 @llvm.umin.i32(i32 %37, i32 %2)
  %.neg = shl i32 -2, %.0.lcssa.i
  %38 = add i32 %.neg, %.54
  %39 = getelementptr inbounds nuw i8, ptr %0, i64 128
  store i32 %38, ptr %39, align 8, !tbaa !33
  tail call void @Cudd_SetMinHit(ptr noundef nonnull %0, i32 noundef 30) #14
  %40 = uitofp i32 %11 to double
  %41 = getelementptr inbounds nuw i8, ptr %0, i64 120
  %42 = load double, ptr %41, align 8, !tbaa !34
  %43 = tail call double @llvm.fmuladd.f64(double %40, double %42, double 1.000000e+00)
  %44 = fptosi double %43 to i32
  %45 = sitofp i32 %44 to double
  %46 = getelementptr inbounds nuw i8, ptr %0, i64 104
  store double %45, ptr %46, align 8, !tbaa !35
  %47 = getelementptr inbounds nuw i8, ptr %0, i64 112
  store double 0.000000e+00, ptr %47, align 8, !tbaa !36
  %48 = getelementptr inbounds nuw i8, ptr %0, i64 680
  store double 0.000000e+00, ptr %48, align 8, !tbaa !37
  %49 = fneg double %45
  %50 = getelementptr inbounds nuw i8, ptr %0, i64 688
  store double %49, ptr %50, align 8, !tbaa !38
  %51 = getelementptr inbounds nuw i8, ptr %0, i64 696
  tail call void @llvm.memset.p0.i64(ptr noundef nonnull align 8 dereferenceable(32) %51, i8 0, i64 32, i1 false)
  %52 = load ptr, ptr %26, align 8, !tbaa !28
  %wide.trip.count = zext i32 %11 to i64
  br label %53

53:                                               ; preds = %20, %53
  %indvars.iv = phi i64 [ 0, %20 ], [ %indvars.iv.next, %53 ]
  %54 = getelementptr inbounds nuw %struct.DdCache, ptr %52, i64 %indvars.iv, i32 2
  %indvars.iv.next = add nuw nsw i64 %indvars.iv, 1
  %exitcond.not = icmp eq i64 %indvars.iv.next, %wide.trip.count
  tail call void @llvm.memset.p0.i64(ptr noundef nonnull align 8 dereferenceable(16) %54, i8 0, i64 16, i1 false)
  br i1 %exitcond.not, label %.loopexit, label %53, !llvm.loop !39

.loopexit:                                        ; preds = %53, %18
  %.0 = phi i32 [ 0, %18 ], [ 1, %53 ]
  ret i32 %.0
}